target datalayout = "e-m:e-p270:32:32-p271:32:32-p272:64:64-i64:64-i128:128-f80:128-n8:16:32:64-S128"
target triple = "x86_64-pc-linux-gnu"

%struct.GCRef = type { i64 }
%struct.CTState = type { ptr, i32, i32, ptr, ptr, ptr, %struct.CCallback, [128 x i16] }
%struct.CCallback = type { [8 x %union.FPRCBArg], [8 x i64], ptr, ptr, ptr, i32, i32, i32 }
%union.FPRCBArg = type { double }
%struct.CType = type { i32, i32, i16, i16, %struct.GCRef }

; Function Attrs: alwaysinline nounwind uwtable
define internal i32 @ctype_check(ptr noundef %0, i32 noundef %1) #3 {
  %3 = alloca ptr, align 8
  %4 = alloca i32, align 4
  store ptr %0, ptr %3, align 8, !tbaa !4
  store i32 %1, ptr %4, align 4, !tbaa !10
  %5 = load i32, ptr %4, align 4, !tbaa !10
  ret i32 %5
}

; Function Attrs: alwaysinline nounwind uwtable
define internal ptr @ctype_get(ptr noundef %0, i32 noundef %1) #3 {
  %3 = alloca ptr, align 8
  %4 = alloca i32, align 4
  store ptr %0, ptr %3, align 8, !tbaa !4
  store i32 %1, ptr %4, align 4, !tbaa !10
  %5 = load ptr, ptr %3, align 8, !tbaa !4
  %6 = getelementptr inbounds nuw %struct.CTState, ptr %5, i32 0, i32 0
  %7 = load ptr, ptr %6, align 8, !tbaa !86
  %8 = load ptr, ptr %3, align 8, !tbaa !4
  %9 = load i32, ptr %4, align 4, !tbaa !10
  %10 = call i32 @ctype_check(ptr noundef %8, i32 noundef %9)
  %11 = zext i32 %10 to i64
  %12 = getelementptr inbounds nuw %struct.CType, ptr %7, i64 %11
  ret ptr %12
}

; Function Attrs: alwaysinline nounwind uwtable
define internal ptr @ctype_child(ptr noundef %0, ptr noundef %1) #3 {
  %3 = alloca ptr, align 8
  %4 = alloca ptr, align 8
  store ptr %0, ptr %3, align 8, !tbaa !4
  store ptr %1, ptr %4, align 8, !tbaa !60
  %5 = load ptr, ptr %3, align 8, !tbaa !4
  %6 = load ptr, ptr %4, align 8, !tbaa !60
  %7 = getelementptr inbounds nuw %struct.CType, ptr %6, i32 0, i32 0
  %8 = load i32, ptr %7, align 8, !tbaa !61
  %9 = and i32 %8, 65535
  %10 = call ptr @ctype_get(ptr noundef %5, i32 noundef %9)
  ret ptr %10
}

; Function Attrs: nounwind uwtable
define hidden void @lj_cdata_set(ptr noundef %0, ptr noundef %1, ptr noundef %2, ptr noundef %3, i32 noundef %4) #0 {
  %6 = alloca ptr, align 8
  %7 = alloca ptr, align 8
  %8 = alloca ptr, align 8
  %9 = alloca ptr, align 8
  %10 = alloca i32, align 4
  store ptr %0, ptr %6, align 8, !tbaa !4
  store ptr %1, ptr %7, align 8, !tbaa !60
  store ptr %2, ptr %8, align 8, !tbaa !30
  store ptr %3, ptr %9, align 8, !tbaa !73
  store i32 %4, ptr %10, align 4, !tbaa !10
  %11 = load ptr, ptr %7, align 8, !tbaa !60
  %12 = getelementptr inbounds nuw %struct.CType, ptr %11, i32 0, i32 0
  %13 = load i32, ptr %12, align 8, !tbaa !61
  %14 = lshr i32 %13, 28
  %15 = icmp eq i32 %14, 11
  br i1 %15, label %16, label %17

16:                                               ; preds = %5
  br label %88

17:                                               ; preds = %5
  %18 = load ptr, ptr %7, align 8, !tbaa !60
  %19 = getelementptr inbounds nuw %struct.CType, ptr %18, i32 0, i32 0
  %20 = load i32, ptr %19, align 8, !tbaa !61
  %21 = lshr i32 %20, 28
  %22 = icmp eq i32 %21, 10
  br i1 %22, label %23, label %37

23:                                               ; preds = %17
  %24 = load ptr, ptr %7, align 8, !tbaa !60
  %25 = getelementptr inbounds nuw %struct.CType, ptr %24, i32 0, i32 0
  %26 = load i32, ptr %25, align 8, !tbaa !61
  %27 = load i32, ptr %10, align 4, !tbaa !10
  %28 = or i32 %26, %27
  %29 = and i32 %28, 33554432
  %30 = icmp ne i32 %29, 0
  br i1 %30, label %31, label %32

31:                                               ; preds = %23
  br label %88

32:                                               ; preds = %23
  %33 = load ptr, ptr %6, align 8, !tbaa !4
  %34 = load ptr, ptr %7, align 8, !tbaa !60
  %35 = load ptr, ptr %8, align 8, !tbaa !30
  %36 = load ptr, ptr %9, align 8, !tbaa !73
  call void @lj_cconv_bf_tv(ptr noundef %33, ptr noundef %34, ptr noundef %35, ptr noundef %36)
  br label %97

37:                                               ; preds = %17
  br label %38

38:                                               ; preds = %37
  %39 = load ptr, ptr %6, align 8, !tbaa !4
  %40 = load ptr, ptr %7, align 8, !tbaa !60
  %41 = call ptr @ctype_child(ptr noundef %39, ptr noundef %40)
  store ptr %41, ptr %7, align 8, !tbaa !60
  %42 = load ptr, ptr %7, align 8, !tbaa !60
  %43 = getelementptr inbounds nuw %struct.CType, ptr %42, i32 0, i32 0
  %44 = load i32, ptr %43, align 8, !tbaa !61
  %45 = and i32 %44, -260046848
  %46 = icmp eq i32 %45, 545259520
  br i1 %46, label %47, label %53

47:                                               ; preds = %38
  %48 = load ptr, ptr %8, align 8, !tbaa !30
  %49 = load ptr, ptr %48, align 8, !tbaa !30
  store ptr %49, ptr %8, align 8, !tbaa !30
  %50 = load ptr, ptr %6, align 8, !tbaa !4
  %51 = load ptr, ptr %7, align 8, !tbaa !60
  %52 = call ptr @ctype_child(ptr noundef %50, ptr noundef %51)
  store ptr %52, ptr %7, align 8, !tbaa !60
  br label %53

53:                                               ; preds = %47, %38
  br label %54

54:                                               ; preds = %75, %53
  %55 = load ptr, ptr %7, align 8, !tbaa !60
  %56 = getelementptr inbounds nuw %struct.CType, ptr %55, i32 0, i32 0
  %57 = load i32, ptr %56, align 8, !tbaa !61
  %58 = lshr i32 %57, 28
  %59 = icmp eq i32 %58, 8
  br i1 %59, label %60, label %74

60:                                               ; preds = %54
  %61 = load ptr, ptr %7, align 8, !tbaa !60
  %62 = getelementptr inbounds nuw %struct.CType, ptr %61, i32 0, i32 0
  %63 = load i32, ptr %62, align 8, !tbaa !61
  %64 = lshr i32 %63, 16
  %65 = and i32 %64, 255
  %66 = icmp eq i32 %65, 1
  br i1 %66, label %67, label %73

67:                                               ; preds = %60
  %68 = load ptr, ptr %7, align 8, !tbaa !60
  %69 = getelementptr inbounds nuw %struct.CType, ptr %68, i32 0, i32 1
  %70 = load i32, ptr %69, align 4, !tbaa !63
  %71 = load i32, ptr %10, align 4, !tbaa !10
  %72 = or i32 %71, %70
  store i32 %72, ptr %10, align 4, !tbaa !10
  br label %73

73:                                               ; preds = %67, %60
  br label %75

74:                                               ; preds = %54
  br label %79

75:                                               ; preds = %73
  %76 = load ptr, ptr %6, align 8, !tbaa !4
  %77 = load ptr, ptr %7, align 8, !tbaa !60
  %78 = call ptr @ctype_child(ptr noundef %76, ptr noundef %77)
  store ptr %78, ptr %7, align 8, !tbaa !60
  br label %54

79:                                               ; preds = %74
  %80 = load ptr, ptr %7, align 8, !tbaa !60
  %81 = getelementptr inbounds nuw %struct.CType, ptr %80, i32 0, i32 0
  %82 = load i32, ptr %81, align 8, !tbaa !61
  %83 = load i32, ptr %10, align 4, !tbaa !10
  %84 = or i32 %82, %83
  %85 = and i32 %84, 33554432
  %86 = icmp ne i32 %85, 0
  br i1 %86, label %87, label %92

87:                                               ; preds = %79
  br label %88

88:                                               ; preds = %87, %31, %16
  %89 = load ptr, ptr %6, align 8, !tbaa !4
  %90 = getelementptr inbounds nuw %struct.CTState, ptr %89, i32 0, i32 3
  %91 = load ptr, ptr %90, align 8, !tbaa !14
  call void @lj_err_caller(ptr noundef %91, i32 noundef 3594) #7
  unreachable

92:                                               ; preds = %79
  %93 = load ptr, ptr %6, align 8, !tbaa !4
  %94 = load ptr, ptr %7, align 8, !tbaa !60
  %95 = load ptr, ptr %8, align 8, !tbaa !30
  %96 = load ptr, ptr %9, align 8, !tbaa !73
  call void @lj_cconv_ct_tv(ptr noundef %93, ptr noundef %94, ptr noundef %95, ptr noundef %96, i32 noundef 0)
  br label %97

97:                                               ; preds = %92, %32
  ret void
}