; Function Attrs: nounwind uwtable
define hidden void @lj_cdata_set(ptr noundef %0, ptr noundef %1, ptr noundef %2, ptr noundef %3, i32 noundef %4) local_unnamed_addr #0 {
  %6 = load i32, ptr %1, align 8, !tbaa !51
  %7 = lshr i32 %6, 28
  switch i32 %7, label %12 [
    i32 11, label %43
    i32 10, label %8
  ]

8:                                                ; preds = %5
  %9 = or i32 %6, %4
  %10 = and i32 %9, 33554432
  %.not30 = icmp eq i32 %10, 0
  br i1 %.not30, label %11, label %43

11:                                               ; preds = %8
  tail call void @lj_cconv_bf_tv(ptr noundef %0, ptr noundef nonnull %1, ptr noundef %2, ptr noundef %3) #4
  br label %47

12:                                               ; preds = %5
  %13 = and i32 %6, 65535
  %14 = load ptr, ptr %0, align 8, !tbaa !50
  %15 = zext nneg i32 %13 to i64
  %16 = getelementptr inbounds nuw %struct.CType, ptr %14, i64 %15
  %17 = load i32, ptr %16, align 8, !tbaa !51
  %18 = and i32 %17, -260046848
  %19 = icmp eq i32 %18, 545259520
  br i1 %19, label %20, label %25

20:                                               ; preds = %12
  %21 = load ptr, ptr %2, align 8, !tbaa !64
  %22 = and i32 %17, 65535
  %23 = zext nneg i32 %22 to i64
  %24 = getelementptr inbounds nuw %struct.CType, ptr %14, i64 %23
  %.pre = load i32, ptr %24, align 8, !tbaa !51
  br label %25

25:                                               ; preds = %20, %12
  %26 = phi i32 [ %.pre, %20 ], [ %17, %12 ]
  %.028 = phi ptr [ %21, %20 ], [ %2, %12 ]
  %.026 = phi ptr [ %24, %20 ], [ %16, %12 ]
  %27 = icmp slt i32 %26, -1879048192
  br i1 %27, label %.lr.ph, label %._crit_edge

.lr.ph:                                           ; preds = %25, %35
  %28 = phi i32 [ %39, %35 ], [ %26, %25 ]
  %.032 = phi i32 [ %.1, %35 ], [ %4, %25 ]
  %.12731 = phi ptr [ %38, %35 ], [ %.026, %25 ]
  %29 = and i32 %28, 16711680
  %30 = icmp eq i32 %29, 65536
  br i1 %30, label %31, label %35

31:                                               ; preds = %.lr.ph
  %32 = getelementptr inbounds nuw i8, ptr %.12731, i64 4
  %33 = load i32, ptr %32, align 4, !tbaa !55
  %34 = or i32 %33, %.032
  br label %35

35:                                               ; preds = %.lr.ph, %31
  %.1 = phi i32 [ %34, %31 ], [ %.032, %.lr.ph ]
  %36 = and i32 %28, 65535
  %37 = zext nneg i32 %36 to i64
  %38 = getelementptr inbounds nuw %struct.CType, ptr %14, i64 %37
  %39 = load i32, ptr %38, align 8, !tbaa !51
  %40 = icmp slt i32 %39, -1879048192
  br i1 %40, label %.lr.ph, label %._crit_edge

._crit_edge:                                      ; preds = %35, %25
  %.127.lcssa = phi ptr [ %.026, %25 ], [ %38, %35 ]
  %.0.lcssa = phi i32 [ %4, %25 ], [ %.1, %35 ]
  %.lcssa = phi i32 [ %26, %25 ], [ %39, %35 ]
  %41 = or i32 %.lcssa, %.0.lcssa
  %42 = and i32 %41, 33554432
  %.not = icmp eq i32 %42, 0
  br i1 %.not, label %46, label %43

43:                                               ; preds = %5, %._crit_edge, %8
  %44 = getelementptr inbounds nuw i8, ptr %0, i64 16
  %45 = load ptr, ptr %44, align 8, !tbaa !4
  tail call void @lj_err_caller(ptr noundef %45, i32 noundef 3594) #5
  unreachable

46:                                               ; preds = %._crit_edge
  tail call void @lj_cconv_ct_tv(ptr noundef nonnull %0, ptr noundef nonnull %.127.lcssa, ptr noundef %.028, ptr noundef %3, i32 noundef 0) #4
  br label %47

47:                                               ; preds = %46, %11
  ret void
}